target datalayout = "e-m:e-p270:32:32-p271:32:32-p272:64:64-i64:64-i128:128-f80:128-n8:16:32:64-S128"
target triple = "x86_64-pc-linux-gnu"

%class.QString = type { ptr }

@.str.66 = private unnamed_addr constant [7 x i8] c"error!\00", align 1
@.str.67 = private unnamed_addr constant [77 x i8] c"Fills the color of the vertices of the mesh with a color chosen by the user.\00", align 1
@.str.68 = private unnamed_addr constant [109 x i8] c"Colors the vertices of the mesh using two colors according to a lightness threshold (on the original color).\00", align 1
@.str.69 = private unnamed_addr constant [84 x i8] c"Change the color the vertices of the mesh adjusting brightness, contrast and gamma.\00", align 1
@.str.70 = private unnamed_addr constant [48 x i8] c"Inverts the colors of the vertices of the mesh.\00", align 1
@.str.72 = private unnamed_addr constant [146 x i8] c"Allows the application of a color to the mesh. In spite of the Fill operation, the color is blended with the mesh according to a given intensity.\00", align 1
@.str.73 = private unnamed_addr constant [214 x i8] c"The filter desaturates the colors of the mesh. This provides a simple way to convert a mesh in gray tones. The user can choose the desaturation method to apply; they are based on Lightness, Luminosity and Average.\00", align 1
@.str.74 = private unnamed_addr constant [158 x i8] c"The filter equalizes the colors histogram. It is a kind of automatic regulation of contrast; the colors histogram is expanded to fit all the range of colors.\00", align 1
@.str.75 = private unnamed_addr constant [209 x i8] c"The filter provides a standard white balance transformation. It is done correcting the RGB channels with a factor such that, the brighter color in the mesh, that is supposed to be white, becomes really white.\00", align 1
@.str.76 = private unnamed_addr constant [180 x i8] c"Paints the mesh using PerlinColor function. The color assigned to vertices depends on their position in the space; it means that near vertices will be painted with similar colors.\00", align 1
@.str.77 = private unnamed_addr constant [117 x i8] c"Adds to the color the requested amount of bits of noise. Bits of noise are added independently for each RGB channel.\00", align 1
@.str.78 = private unnamed_addr constant [179 x i8] c"Assigns a random color to each visible mesh layer in the document. Colors change every time the filter is executed, but are always chosen so that they differ as much as possible.\00", align 1
@.str.79 = private unnamed_addr constant [92 x i8] c"Clamp vertex quality values to a given range according to specific values or to percentiles\00", align 1
@.str.80 = private unnamed_addr constant [232 x i8] c"Saturate vertex quality, so that for each vertex the gradient of the quality is lower than the given threshold value (in absolute value)\0AThe saturation is done in a conservative way (quality is always decreased and never increased)\00", align 1
@.str.81 = private unnamed_addr constant [70 x i8] c"Color vertices depending on their quality field (manually equalized).\00", align 1
@.str.82 = private unnamed_addr constant [67 x i8] c"Color faces depending on their quality field (manually equalized).\00", align 1
@.str.83 = private unnamed_addr constant [207 x i8] c"Colorize according to various discrete curvature computed as described in:<br>'<i>Discrete Differential-Geometry Operators for Triangulated 2-Manifolds</i>' <br>M. Meyer, M. Desbrun, P. Schroder, A. H. Barr\00", align 1
@.str.85 = private unnamed_addr constant [30 x i8] c"Laplacian Smooth Vertex Color\00", align 1
@.str.86 = private unnamed_addr constant [28 x i8] c"Laplacian Smooth Face Color\00", align 1
@.str.87 = private unnamed_addr constant [30 x i8] c"Vertex to Face color transfer\00", align 1
@.str.88 = private unnamed_addr constant [28 x i8] c"Mesh to Face color transfer\00", align 1
@.str.89 = private unnamed_addr constant [30 x i8] c"Face to Vertex color transfer\00", align 1
@.str.90 = private unnamed_addr constant [33 x i8] c"Texture to Vertex color transfer\00", align 1
@.str.91 = private unnamed_addr constant [88 x i8] c"Colorize Faces randomly. If internal edges are present they are used. Useful for quads.\00", align 1
@.str.92 = private unnamed_addr constant [44 x i8] c"Colorize each connected component randomly.\00", align 1
@.str.93 = private unnamed_addr constant [32 x i8] c"Vertex to Face quality transfer\00", align 1
@.str.94 = private unnamed_addr constant [32 x i8] c"Face to Vertex quality transfer\00", align 1

; Function Attrs: mustprogress uwtable
define linkonce_odr void @_ZN7QStringC2EPKc(ptr noundef nonnull align 8 dereferenceable(8) %0, ptr noundef %1) unnamed_addr #3 comdat align 2 {
  %3 = alloca ptr, align 8
  %4 = alloca ptr, align 8
  store ptr %0, ptr %3, align 8
  store ptr %1, ptr %4, align 8
  %5 = load ptr, ptr %3, align 8
  %6 = getelementptr inbounds %class.QString, ptr %5, i32 0, i32 0
  %7 = load ptr, ptr %4, align 8
  %8 = load ptr, ptr %4, align 8
  %9 = icmp ne ptr %8, null
  br i1 %9, label %10, label %14

10:                                               ; preds = %2
  %11 = load ptr, ptr %4, align 8
  %12 = call i64 @strlen(ptr noundef %11) #26
  %13 = trunc i64 %12 to i32
  br label %15

14:                                               ; preds = %2
  br label %15

15:                                               ; preds = %14, %10
  %16 = phi i32 [ %13, %10 ], [ -1, %14 ]
  %17 = call noundef ptr @_ZN7QString16fromAscii_helperEPKci(ptr noundef %7, i32 noundef %16)
  store ptr %17, ptr %6, align 8
  ret void
}

; Function Attrs: mustprogress uwtable
define void @_ZNK15FilterColorProc10filterInfoEi(ptr dead_on_unwind noalias writable sret(%class.QString) align 8 %0, ptr noundef nonnull align 8 dereferenceable(80) %1, i32 noundef %2) unnamed_addr #3 align 2 {
  %4 = alloca ptr, align 8
  %5 = alloca ptr, align 8
  %6 = alloca i32, align 4
  store ptr %0, ptr %4, align 8
  store ptr %1, ptr %5, align 8
  store i32 %2, ptr %6, align 4
  %7 = load i32, ptr %6, align 4
  switch i32 %7, label %36 [
    i32 0, label %8
    i32 1, label %9
    i32 2, label %10
    i32 5, label %11
    i32 4, label %12
    i32 6, label %13
    i32 7, label %14
    i32 9, label %15
    i32 8, label %16
    i32 10, label %17
    i32 11, label %18
    i32 12, label %19
    i32 13, label %20
    i32 14, label %21
    i32 15, label %22
    i32 16, label %23
    i32 17, label %24
    i32 18, label %25
    i32 19, label %26
    i32 20, label %27
    i32 23, label %28
    i32 24, label %29
    i32 21, label %30
    i32 22, label %31
    i32 25, label %32
    i32 26, label %33
    i32 27, label %34
    i32 28, label %35
  ]

8:                                                ; preds = %3
  call void @_ZN7QStringC2EPKc(ptr noundef nonnull align 8 dereferenceable(8) %0, ptr noundef @.str.67)
  br label %38

9:                                                ; preds = %3
  call void @_ZN7QStringC2EPKc(ptr noundef nonnull align 8 dereferenceable(8) %0, ptr noundef @.str.68)
  br label %38

10:                                               ; preds = %3
  call void @_ZN7QStringC2EPKc(ptr noundef nonnull align 8 dereferenceable(8) %0, ptr noundef @.str.69)
  br label %38

11:                                               ; preds = %3
  call void @_ZN7QStringC2EPKc(ptr noundef nonnull align 8 dereferenceable(8) %0, ptr noundef @.str.70)
  br label %38

12:                                               ; preds = %3
  call void @_ZN7QStringC2EPKc(ptr noundef nonnull align 8 dereferenceable(8) %0, ptr noundef @.str.71)
  br label %38

13:                                               ; preds = %3
  call void @_ZN7QStringC2EPKc(ptr noundef nonnull align 8 dereferenceable(8) %0, ptr noundef @.str.72)
  br label %38

14:                                               ; preds = %3
  call void @_ZN7QStringC2EPKc(ptr noundef nonnull align 8 dereferenceable(8) %0, ptr noundef @.str.73)
  br label %38

15:                                               ; preds = %3
  call void @_ZN7QStringC2EPKc(ptr noundef nonnull align 8 dereferenceable(8) %0, ptr noundef @.str.74)
  br label %38

16:                                               ; preds = %3
  call void @_ZN7QStringC2EPKc(ptr noundef nonnull align 8 dereferenceable(8) %0, ptr noundef @.str.75)
  br label %38

17:                                               ; preds = %3
  call void @_ZN7QStringC2EPKc(ptr noundef nonnull align 8 dereferenceable(8) %0, ptr noundef @.str.76)
  br label %38

18:                                               ; preds = %3
  call void @_ZN7QStringC2EPKc(ptr noundef nonnull align 8 dereferenceable(8) %0, ptr noundef @.str.77)
  br label %38

19:                                               ; preds = %3
  call void @_ZN7QStringC2EPKc(ptr noundef nonnull align 8 dereferenceable(8) %0, ptr noundef @.str.78)
  br label %38

20:                                               ; preds = %3
  call void @_ZN7QStringC2EPKc(ptr noundef nonnull align 8 dereferenceable(8) %0, ptr noundef @.str.79)
  br label %38

21:                                               ; preds = %3
  call void @_ZN7QStringC2EPKc(ptr noundef nonnull align 8 dereferenceable(8) %0, ptr noundef @.str.80)
  br label %38

22:                                               ; preds = %3
  call void @_ZN7QStringC2EPKc(ptr noundef nonnull align 8 dereferenceable(8) %0, ptr noundef @.str.81)
  br label %38

23:                                               ; preds = %3
  call void @_ZN7QStringC2EPKc(ptr noundef nonnull align 8 dereferenceable(8) %0, ptr noundef @.str.82)
  br label %38

24:                                               ; preds = %3
  call void @_ZN7QStringC2EPKc(ptr noundef nonnull align 8 dereferenceable(8) %0, ptr noundef @.str.83)
  br label %38

25:                                               ; preds = %3
  call void @_ZN7QStringC2EPKc(ptr noundef nonnull align 8 dereferenceable(8) %0, ptr noundef @.str.84)
  br label %38

26:                                               ; preds = %3
  call void @_ZN7QStringC2EPKc(ptr noundef nonnull align 8 dereferenceable(8) %0, ptr noundef @.str.85)
  br label %38

27:                                               ; preds = %3
  call void @_ZN7QStringC2EPKc(ptr noundef nonnull align 8 dereferenceable(8) %0, ptr noundef @.str.86)
  br label %38

28:                                               ; preds = %3
  call void @_ZN7QStringC2EPKc(ptr noundef nonnull align 8 dereferenceable(8) %0, ptr noundef @.str.87)
  br label %38

29:                                               ; preds = %3
  call void @_ZN7QStringC2EPKc(ptr noundef nonnull align 8 dereferenceable(8) %0, ptr noundef @.str.88)
  br label %38

30:                                               ; preds = %3
  call void @_ZN7QStringC2EPKc(ptr noundef nonnull align 8 dereferenceable(8) %0, ptr noundef @.str.89)
  br label %38

31:                                               ; preds = %3
  call void @_ZN7QStringC2EPKc(ptr noundef nonnull align 8 dereferenceable(8) %0, ptr noundef @.str.90)
  br label %38

32:                                               ; preds = %3
  call void @_ZN7QStringC2EPKc(ptr noundef nonnull align 8 dereferenceable(8) %0, ptr noundef @.str.91)
  br label %38

33:                                               ; preds = %3
  call void @_ZN7QStringC2EPKc(ptr noundef nonnull align 8 dereferenceable(8) %0, ptr noundef @.str.92)
  br label %38

34:                                               ; preds = %3
  call void @_ZN7QStringC2EPKc(ptr noundef nonnull align 8 dereferenceable(8) %0, ptr noundef @.str.93)
  br label %38

35:                                               ; preds = %3
  call void @_ZN7QStringC2EPKc(ptr noundef nonnull align 8 dereferenceable(8) %0, ptr noundef @.str.94)
  br label %38

36:                                               ; preds = %3
  br label %37

37:                                               ; preds = %36
  call void @_ZN7QStringC2EPKc(ptr noundef nonnull align 8 dereferenceable(8) %0, ptr noundef @.str.66)
  br label %38

38:                                               ; preds = %37, %35, %34, %33, %32, %31, %30, %29, %28, %27, %26, %25, %24, %23, %22, %21, %20, %19, %18, %17, %16, %15, %14, %13, %12, %11, %10, %9, %8
  ret void
}